; Function Attrs: nounwind uwtable
define noalias noundef ptr @Aig_ManCreateOutputs(ptr noundef readnone captures(none) %0, ptr noundef readonly captures(none) %1) local_unnamed_addr #2 {
  %3 = getelementptr i8, ptr %1, i64 112
  %.val11 = load i32, ptr %3, align 8, !tbaa !50
  %4 = sext i32 %.val11 to i64
  %5 = shl nsw i64 %4, 3
  %6 = tail call noalias ptr @malloc(i64 noundef %5) #16
  %7 = icmp sgt i32 %.val11, 0
  br i1 %7, label %.lr.ph, label %.critedge

.lr.ph:                                           ; preds = %2
  %8 = getelementptr inbounds nuw i8, ptr %1, i64 24
  br label %9

9:                                                ; preds = %.lr.ph, %9
  %indvars.iv = phi i64 [ 0, %.lr.ph ], [ %indvars.iv.next, %9 ]
  %10 = load ptr, ptr %8, align 8, !tbaa !51
  %11 = getelementptr i8, ptr %10, i64 8
  %.val = load ptr, ptr %11, align 8, !tbaa !52
  %12 = getelementptr inbounds nuw ptr, ptr %.val, i64 %indvars.iv
  %13 = load ptr, ptr %12, align 8, !tbaa !54
  %14 = getelementptr i8, ptr %13, i64 40
  %.val13 = load ptr, ptr %14, align 8, !tbaa !55
  %15 = getelementptr inbounds nuw ptr, ptr %6, i64 %indvars.iv
  store ptr %.val13, ptr %15, align 8, !tbaa !33
  tail call void @Cudd_Ref(ptr noundef %.val13) #15
  %indvars.iv.next = add nuw nsw i64 %indvars.iv, 1
  %.val12 = load i32, ptr %3, align 8, !tbaa !50
  %16 = sext i32 %.val12 to i64
  %17 = icmp slt i64 %indvars.iv.next, %16
  br i1 %17, label %9, label %.critedge, !llvm.loop !56

.critedge:                                        ; preds = %9, %2
  ret ptr %6
}